; Function Attrs: nounwind uwtable
define void @DrawSplineBezierQuadratic(ptr noundef readonly captures(none) %0, i32 noundef %1, float noundef %2, i32 %3) local_unnamed_addr #4 {
  %5 = alloca [50 x %struct.Vector2], align 16
  %6 = icmp sgt i32 %1, 2
  br i1 %6, label %.lr.ph, label %.loopexit

.lr.ph:                                           ; preds = %4
  %7 = add nsw i32 %1, -2
  %8 = getelementptr inbounds nuw i8, ptr %5, i64 16
  %9 = fmul float %2, 5.000000e-01
  %10 = getelementptr inbounds nuw i8, ptr %5, i64 12
  %11 = getelementptr inbounds nuw i8, ptr %5, i64 8
  %12 = getelementptr inbounds nuw i8, ptr %5, i64 4
  %13 = zext nneg i32 %7 to i64
  br label %14

14:                                               ; preds = %.lr.ph, %DrawSplineSegmentBezierQuadratic.exit
  %indvars.iv = phi i64 [ 0, %.lr.ph ], [ %indvars.iv.next, %DrawSplineSegmentBezierQuadratic.exit ]
  %15 = getelementptr inbounds nuw %struct.Vector2, ptr %0, i64 %indvars.iv
  %16 = or disjoint i64 %indvars.iv, 1
  %17 = getelementptr inbounds nuw %struct.Vector2, ptr %0, i64 %16
  %indvars.iv.next = add nuw nsw i64 %indvars.iv, 2
  %18 = getelementptr inbounds nuw %struct.Vector2, ptr %0, i64 %indvars.iv.next
  %19 = load <2 x float>, ptr %15, align 4
  %20 = load <2 x float>, ptr %17, align 4
  %21 = load <2 x float>, ptr %18, align 4
  %.sroa.050.0.vec.extract52.i = extractelement <2 x float> %19, i64 0
  %.sroa.050.4.vec.extract54.i = extractelement <2 x float> %19, i64 1
  call void @llvm.lifetime.start.p0(i64 400, ptr nonnull %5) #16
  call void @llvm.memset.p0.i64(ptr noundef nonnull align 16 dereferenceable(400) %8, i8 0, i64 384, i1 false)
  %.sroa.049.4.vec.extract.i = extractelement <2 x float> %20, i64 1
  %.sroa.048.4.vec.extract.i = extractelement <2 x float> %21, i64 1
  %.sroa.049.0.vec.extract.i = extractelement <2 x float> %20, i64 0
  %.sroa.048.0.vec.extract.i = extractelement <2 x float> %21, i64 0
  br label %22

22:                                               ; preds = %52, %14
  %indvars.iv.i = phi i64 [ 1, %14 ], [ %indvars.iv.next.i, %52 ]
  %23 = phi float [ 0.000000e+00, %14 ], [ %53, %52 ]
  %24 = phi float [ 0.000000e+00, %14 ], [ %54, %52 ]
  %25 = phi float [ 0.000000e+00, %14 ], [ %55, %52 ]
  %.sroa.7.058.i = phi float [ %.sroa.050.4.vec.extract54.i, %14 ], [ %35, %52 ]
  %.sroa.041.057.i = phi float [ %.sroa.050.0.vec.extract52.i, %14 ], [ %38, %52 ]
  %26 = phi float [ 0.000000e+00, %14 ], [ %56, %52 ]
  %27 = trunc nuw nsw i64 %indvars.iv.i to i32
  %28 = uitofp nneg i32 %27 to float
  %29 = fmul float %28, 0x3FA5555560000000
  %30 = fsub float 1.000000e+00, %29
  %square.i = fmul float %30, %30
  %31 = fmul float %30, 2.000000e+00
  %32 = fmul float %29, %31
  %square55.i = fmul float %29, %29
  %33 = fmul float %.sroa.049.4.vec.extract.i, %32
  %34 = tail call float @llvm.fmuladd.f32(float %square.i, float %.sroa.050.4.vec.extract54.i, float %33)
  %35 = tail call float @llvm.fmuladd.f32(float %square55.i, float %.sroa.048.4.vec.extract.i, float %34)
  %36 = fmul float %.sroa.049.0.vec.extract.i, %32
  %37 = tail call float @llvm.fmuladd.f32(float %square.i, float %.sroa.050.0.vec.extract52.i, float %36)
  %38 = tail call float @llvm.fmuladd.f32(float %square55.i, float %.sroa.048.0.vec.extract.i, float %37)
  %39 = fsub float %35, %.sroa.7.058.i
  %40 = fsub float %38, %.sroa.041.057.i
  %41 = fmul float %39, %39
  %42 = tail call float @llvm.fmuladd.f32(float %40, float %40, float %41)
  %sqrt.i = tail call float @llvm.sqrt.f32(float %42)
  %43 = fdiv float %9, %sqrt.i
  %44 = icmp eq i64 %indvars.iv.i, 1
  %45 = fneg float %40
  br i1 %44, label %46, label %._crit_edge.i

._crit_edge.i:                                    ; preds = %22
  %.pre.i = fneg float %39
  br label %52

46:                                               ; preds = %22
  %47 = tail call float @llvm.fmuladd.f32(float %39, float %43, float %.sroa.041.057.i)
  %48 = tail call float @llvm.fmuladd.f32(float %45, float %43, float %.sroa.7.058.i)
  %49 = fneg float %39
  %50 = tail call float @llvm.fmuladd.f32(float %49, float %43, float %.sroa.041.057.i)
  %51 = tail call float @llvm.fmuladd.f32(float %40, float %43, float %.sroa.7.058.i)
  br label %52

52:                                               ; preds = %46, %._crit_edge.i
  %.pre-phi.i = phi float [ %.pre.i, %._crit_edge.i ], [ %49, %46 ]
  %53 = phi float [ %23, %._crit_edge.i ], [ %51, %46 ]
  %54 = phi float [ %24, %._crit_edge.i ], [ %50, %46 ]
  %55 = phi float [ %25, %._crit_edge.i ], [ %48, %46 ]
  %56 = phi float [ %26, %._crit_edge.i ], [ %47, %46 ]
  %57 = tail call float @llvm.fmuladd.f32(float %.pre-phi.i, float %43, float %38)
  %58 = shl nuw nsw i64 %indvars.iv.i, 1
  %59 = or disjoint i64 %58, 1
  %60 = getelementptr inbounds nuw [50 x %struct.Vector2], ptr %5, i64 0, i64 %59
  store float %57, ptr %60, align 8
  %61 = tail call float @llvm.fmuladd.f32(float %40, float %43, float %35)
  %62 = getelementptr inbounds nuw i8, ptr %60, i64 4
  store float %61, ptr %62, align 4
  %63 = tail call float @llvm.fmuladd.f32(float %39, float %43, float %38)
  %64 = getelementptr inbounds nuw [50 x %struct.Vector2], ptr %5, i64 0, i64 %58
  store float %63, ptr %64, align 16
  %65 = tail call float @llvm.fmuladd.f32(float %45, float %43, float %35)
  %66 = getelementptr inbounds nuw i8, ptr %64, i64 4
  store float %65, ptr %66, align 4
  %indvars.iv.next.i = add nuw nsw i64 %indvars.iv.i, 1
  %exitcond.not.i = icmp eq i64 %indvars.iv.next.i, 25
  br i1 %exitcond.not.i, label %DrawSplineSegmentBezierQuadratic.exit, label %22

DrawSplineSegmentBezierQuadratic.exit:            ; preds = %52
  store float %55, ptr %12, align 4
  store float %54, ptr %11, align 8
  store float %53, ptr %10, align 4
  store float %56, ptr %5, align 16
  call void @DrawTriangleStrip(ptr noundef nonnull %5, i32 noundef 50, i32 %3)
  call void @llvm.lifetime.end.p0(i64 400, ptr nonnull %5) #16
  %67 = icmp samesign ult i64 %indvars.iv.next, %13
  br i1 %67, label %14, label %.loopexit

.loopexit:                                        ; preds = %DrawSplineSegmentBezierQuadratic.exit, %4
  ret void
}